Certificate:
    Data:
        Version: 3 (0x2)
        Serial Number: 1 (0x1)
    Signature Algorithm: sha256WithRSAEncryption
        Issuer: C=FR, ST=IDF, L=PARIS, O=vpnserv, CN=vpnserv CA/name=EasyRSA/emailAddress=vpnserv@integrale.lan
        Validity
            Not Before: Apr  8 08:44:13 2020 GMT
            Not After : Apr  6 08:44:13 2030 GMT
        Subject: C=FR, ST=IDF, L=PARIS, O=integrale, OU=vpnintegrale, CN=admin/name=Myvpn/emailAddress=integrale@integrale.lan
        Subject Public Key Info:
            Public Key Algorithm: rsaEncryption
                Public-Key: (2048 bit)
                Modulus:
                    00:ab:64:96:8b:e8:d4:52:46:26:02:3a:92:8c:64:
                    66:28:fd:58:9b:e9:23:54:ba:0b:55:cd:26:ea:03:
                    25:d2:a6:94:72:6f:6c:23:a6:72:1d:ee:16:16:23:
                    3e:d9:9c:45:45:c0:5b:ed:a3:30:4c:f1:be:5f:df:
                    bb:a8:a9:a0:90:dd:ed:5c:a9:e8:09:c7:40:d8:a2:
                    a6:9f:62:b9:dc:a0:91:30:b7:eb:e5:d0:64:f7:27:
                    f1:8d:87:1a:85:28:08:2f:c5:92:cd:0e:74:19:78:
                    86:00:9f:3e:ce:a9:56:f7:30:4e:8b:41:f7:bb:d6:
                    ee:ed:93:6e:dc:d7:d5:dc:cc:b4:b6:46:1f:ce:86:
                    31:5e:e0:44:16:09:4b:b2:f3:63:6b:38:15:30:5c:
                    ae:90:5c:73:8c:23:8e:16:35:35:48:9c:ca:54:c6:
                    f5:72:1b:68:d0:bc:79:77:0e:9d:27:12:e9:47:7f:
                    18:4c:b1:fa:4a:e3:9e:af:c4:c0:e4:ee:ce:7c:1a:
                    7f:d8:37:80:ef:28:30:c0:16:69:d8:c6:70:35:90:
                    e9:20:1d:3b:f2:21:1c:2d:68:d4:70:1e:15:d0:ec:
                    73:60:f0:60:c8:a1:1a:23:a4:a7:98:9c:e8:45:8c:
                    09:7f:47:b3:ab:ab:a1:e8:f2:9b:b8:63:ad:58:f6:
                    33:f3
                Exponent: 65537 (0x10001)
        X509v3 extensions:
            X509v3 Basic Constraints: 
                CA:FALSE
            Netscape Cert Type: 
                SSL Server
            Netscape Comment: 
                Easy-RSA Generated Server Certificate
            X509v3 Subject Key Identifier: 
                C2:D2:8B:96:99:E9:5F:81:B7:D3:7B:BD:A4:8B:5B:71:BB:5F:F4:14
            X509v3 Authority Key Identifier: 
                keyid:BD:A5:D3:CF:D5:B2:7C:31:2A:5A:30:51:DD:42:BC:58:CF:B1:8F:38
                DirName:/C=FR/ST=IDF/L=PARIS/O=vpnserv/CN=vpnserv CA/name=EasyRSA/emailAddress=vpnserv@integrale.lan
                serial:AA:AB:79:29:DA:BC:13:9F

            X509v3 Extended Key Usage: 
                TLS Web Server Authentication
            X509v3 Key Usage: 
                Digital Signature, Key Encipherment
            X509v3 Subject Alternative Name: 
                DNS:vpnintegrale
    Signature Algorithm: sha256WithRSAEncryption
         2a:a2:aa:bd:a5:8e:89:a0:8e:91:11:ab:17:75:78:ff:0b:7a:
         96:96:e1:65:66:2d:55:48:19:b9:d3:c0:58:b7:14:df:c7:a7:
         39:ce:ce:40:9a:d9:e0:47:63:5b:87:c1:2e:fb:2c:38:cd:db:
         37:c7:e8:d7:ef:bd:9f:bc:f3:9b:15:fd:c9:8d:91:65:79:1a:
         ee:95:53:cb:be:d9:bd:9a:06:58:73:c0:78:e7:60:f3:17:c2:
         67:83:af:1e:e3:99:b9:98:e1:63:14:27:3a:ef:6b:7f:4a:98:
         ea:13:a0:87:a2:12:31:8f:57:61:d2:24:3f:90:32:f2:13:a4:
         22:b6:40:21:89:05:0a:a0:c5:8b:d2:a5:a0:0f:1c:d7:29:bc:
         b2:56:30:c9:b9:9d:30:6d:79:62:df:f0:3b:aa:8f:72:75:5e:
         30:db:0c:ca:d4:a5:16:32:bd:17:2a:68:64:eb:cc:b8:da:67:
         14:23:46:bb:bb:2a:d9:52:a2:23:a1:63:1c:29:b2:dd:8c:de:
         8e:1c:78:c1:90:9c:c0:86:a3:7e:dd:2a:d8:ba:20:b9:ad:94:
         97:70:c8:b5:b5:30:43:cf:40:a6:d1:5f:ba:f1:65:7b:fa:12:
         1d:54:f1:46:5d:1a:07:e3:a2:3d:d8:1c:b2:9a:cd:ee:6c:3f:
         20:0c:ae:fb
-----BEGIN CERTIFICATE-----
MIIFGzCCBAOgAwIBAgIBATANBgkqhkiG9w0BAQsFADCBijELMAkGA1UEBhMCRlIx
DDAKBgNVBAgTA0lERjEOMAwGA1UEBxMFUEFSSVMxEDAOBgNVBAoTB3ZwbnNlcnYx
EzARBgNVBAMTCnZwbnNlcnYgQ0ExEDAOBgNVBCkTB0Vhc3lSU0ExJDAiBgkqhkiG
9w0BCQEWFXZwbnNlcnZAaW50ZWdyYWxlLmxhbjAeFw0yMDA0MDgwODQ0MTNaFw0z
MDA0MDYwODQ0MTNaMIGeMQswCQYDVQQGEwJGUjEMMAoGA1UECBMDSURGMQ4wDAYD
VQQHEwVQQVJJUzESMBAGA1UEChMJaW50ZWdyYWxlMRUwEwYDVQQLEwx2cG5pbnRl
Z3JhbGUxDjAMBgNVBAMTBWFkbWluMQ4wDAYDVQQpEwVNeXZwbjEmMCQGCSqGSIb3
DQEJARYXaW50ZWdyYWxlQGludGVncmFsZS5sYW4wggEiMA0GCSqGSIb3DQEBAQUA
A4IBDwAwggEKAoIBAQCrZJaL6NRSRiYCOpKMZGYo/Vib6SNUugtVzSbqAyXSppRy
b2wjpnId7hYWIz7ZnEVFwFvtozBM8b5f37uoqaCQ3e1cqegJx0DYoqafYrncoJEw
t+vl0GT3J/GNhxqFKAgvxZLNDnQZeIYAnz7OqVb3ME6LQfe71u7tk27c19XczLS2
Rh/OhjFe4EQWCUuy82NrOBUwXK6QXHOMI44WNTVInMpUxvVyG2jQvHl3Dp0nEulH
fxhMsfpK456vxMDk7s58Gn/YN4DvKDDAFmnYxnA1kOkgHTvyIRwtaNRwHhXQ7HNg
8GDIoRojpKeYnOhFjAl/R7Orq6Ho8pu4Y61Y9jPzAgMBAAGjggF0MIIBcDAJBgNV
HRMEAjAAMBEGCWCGSAGG+EIBAQQEAwIGQDA0BglghkgBhvhCAQ0EJxYlRWFzeS1S
U0EgR2VuZXJhdGVkIFNlcnZlciBDZXJ0aWZpY2F0ZTAdBgNVHQ4EFgQUwtKLlpnp
X4G303u9pItbcbtf9BQwgb8GA1UdIwSBtzCBtIAUvaXTz9WyfDEqWjBR3UK8WM+x
jzihgZCkgY0wgYoxCzAJBgNVBAYTAkZSMQwwCgYDVQQIEwNJREYxDjAMBgNVBAcT
BVBBUklTMRAwDgYDVQQKEwd2cG5zZXJ2MRMwEQYDVQQDEwp2cG5zZXJ2IENBMRAw
DgYDVQQpEwdFYXN5UlNBMSQwIgYJKoZIhvcNAQkBFhV2cG5zZXJ2QGludGVncmFs
ZS5sYW6CCQCqq3kp2rwTnzATBgNVHSUEDDAKBggrBgEFBQcDATALBgNVHQ8EBAMC
BaAwFwYDVR0RBBAwDoIMdnBuaW50ZWdyYWxlMA0GCSqGSIb3DQEBCwUAA4IBAQAq
oqq9pY6JoI6REasXdXj/C3qWluFlZi1VSBm508BYtxTfx6c5zs5AmtngR2Nbh8Eu
+yw4zds3x+jX772fvPObFf3JjZFleRrulVPLvtm9mgZYc8B452DzF8Jng68e45m5
mOFjFCc672t/SpjqE6CHohIxj1dh0iQ/kDLyE6QitkAhiQUKoMWL0qWgDxzXKbyy
VjDJuZ0wbXli3/A7qo9ydV4w2wzK1KUWMr0XKmhk68y42mcUI0a7uyrZUqIjoWMc
KbLdjN6OHHjBkJzAhqN+3SrYuiC5rZSXcMi1tTBDz0Cm0V+68WV7+hIdVPFGXRoH
46I92Byyms3ubD8gDK77
-----END CERTIFICATE-----
